target datalayout = "e-m:e-p270:32:32-p271:32:32-p272:64:64-i64:64-i128:128-f80:128-n8:16:32:64-S128"
target triple = "x86_64-pc-linux-gnu"

%class.ShenandoahFullGC = type { %class.ShenandoahGC, ptr, ptr }
%class.ShenandoahGC = type { ptr }
%class.PreservedMarksSet = type { i8, i32, ptr }

@_ZTV16ShenandoahFullGC = hidden unnamed_addr constant { [3 x ptr] } { [3 x ptr] [ptr null, ptr null, ptr @_ZN16ShenandoahFullGC7collectEN7GCCause5CauseE] }, align 8
@_ZTV12ShenandoahGC = linkonce_odr hidden unnamed_addr constant { [3 x ptr] } { [3 x ptr] [ptr null, ptr null, ptr @__cxa_pure_virtual] }, comdat, align 8
@_ZN8Universe14_collectedHeapE = external global ptr, align 8

; Function Attrs: mustprogress nounwind uwtable
define linkonce_odr hidden noundef ptr @_ZN8Universe4heapEv() #1 comdat align 2 {
  %1 = load ptr, ptr @_ZN8Universe14_collectedHeapE, align 8
  ret ptr %1
}

; Function Attrs: mustprogress nounwind uwtable
define linkonce_odr hidden noundef ptr @_ZN13CollectedHeap10named_heapI14ShenandoahHeapEEPT_NS_4NameE(i32 noundef %0) #1 comdat align 2 {
  %2 = alloca i32, align 4
  %3 = alloca ptr, align 8
  store i32 %0, ptr %2, align 4
  %4 = call noundef ptr @_ZN8Universe4heapEv()
  store ptr %4, ptr %3, align 8
  %5 = load ptr, ptr %3, align 8
  ret ptr %5
}

; Function Attrs: mustprogress nounwind uwtable
define linkonce_odr hidden void @_ZN17PreservedMarksSetC2Eb(ptr noundef nonnull align 8 dereferenceable(16) %0, i1 noundef zeroext %1) unnamed_addr #1 comdat align 2 {
  %3 = alloca ptr, align 8
  %4 = alloca i8, align 1
  store ptr %0, ptr %3, align 8
  %5 = zext i1 %1 to i8
  store i8 %5, ptr %4, align 1
  %6 = load ptr, ptr %3, align 8
  %7 = getelementptr inbounds %class.PreservedMarksSet, ptr %6, i32 0, i32 0
  %8 = load i8, ptr %4, align 1
  %9 = trunc i8 %8 to i1
  %10 = zext i1 %9 to i8
  store i8 %10, ptr %7, align 8
  %11 = getelementptr inbounds %class.PreservedMarksSet, ptr %6, i32 0, i32 1
  store i32 0, ptr %11, align 4
  %12 = getelementptr inbounds %class.PreservedMarksSet, ptr %6, i32 0, i32 2
  store ptr null, ptr %12, align 8
  ret void
}

; Function Attrs: mustprogress nounwind uwtable
define linkonce_odr hidden noundef ptr @_ZN14ShenandoahHeap4heapEv() #1 comdat align 2 {
  %1 = call noundef ptr @_ZN13CollectedHeap10named_heapI14ShenandoahHeapEEPT_NS_4NameE(i32 noundef 6)
  ret ptr %1
}

; Function Attrs: mustprogress nounwind uwtable
define linkonce_odr hidden void @_ZN12ShenandoahGCC2Ev(ptr noundef nonnull align 8 dereferenceable(8) %0) unnamed_addr #1 comdat align 2 {
  %2 = alloca ptr, align 8
  store ptr %0, ptr %2, align 8
  %3 = load ptr, ptr %2, align 8
  store ptr getelementptr inbounds inrange(-16, 8) ({ [3 x ptr] }, ptr @_ZTV12ShenandoahGC, i32 0, i32 0, i32 2), ptr %3, align 8
  ret void
}

; Function Attrs: mustprogress nounwind uwtable
define hidden void @_ZN16ShenandoahFullGCC2Ev(ptr noundef nonnull align 8 dereferenceable(24) %0) unnamed_addr #1 align 2 {
  %2 = alloca i64, align 8
  %3 = alloca i8, align 1
  %4 = alloca i64, align 8
  %5 = alloca ptr, align 8
  store ptr %0, ptr %5, align 8
  %6 = load ptr, ptr %5, align 8
  call void @_ZN12ShenandoahGCC2Ev(ptr noundef nonnull align 8 dereferenceable(8) %6) #10
  store ptr getelementptr inbounds inrange(-16, 8) ({ [3 x ptr] }, ptr @_ZTV16ShenandoahFullGC, i32 0, i32 0, i32 2), ptr %6, align 8
  %7 = getelementptr inbounds %class.ShenandoahFullGC, ptr %6, i32 0, i32 1
  %8 = call noundef ptr @_ZN14ShenandoahHeap4heapEv()
  %9 = call noundef ptr @_ZNK14ShenandoahHeap8gc_timerEv(ptr noundef nonnull align 8 dereferenceable(2657) %8)
  store ptr %9, ptr %7, align 8
  %10 = getelementptr inbounds %class.ShenandoahFullGC, ptr %6, i32 0, i32 2
  store i64 16, ptr %4, align 8
  %11 = load i64, ptr %4, align 8
  store i64 %11, ptr %2, align 8
  store i8 5, ptr %3, align 1
  %12 = load i64, ptr %2, align 8
  %13 = load i8, ptr %3, align 1
  %14 = call noundef ptr @_Z12AllocateHeapm8MEMFLAGSN17AllocFailStrategy13AllocFailEnumE(i64 noundef %12, i8 noundef zeroext %13, i32 noundef 0) #10
  call void @_ZN17PreservedMarksSetC2Eb(ptr noundef nonnull align 8 dereferenceable(16) %14, i1 noundef zeroext true)
  store ptr %14, ptr %10, align 8
  ret void
}