; Function Attrs: mustprogress nounwind uwtable
define hidden void @_ZN16ShenandoahFullGCC2Ev(ptr nocapture noundef nonnull writeonly align 8 dereferenceable(24) %0) unnamed_addr #0 align 2 {
  store ptr getelementptr inbounds inrange(-16, 8) (i8, ptr @_ZTV16ShenandoahFullGC, i64 16), ptr %0, align 8
  %2 = getelementptr inbounds i8, ptr %0, i64 8
  %3 = load ptr, ptr @_ZN8Universe14_collectedHeapE, align 8
  %4 = tail call noundef ptr @_ZNK14ShenandoahHeap8gc_timerEv(ptr noundef nonnull align 8 dereferenceable(2657) %3) #13
  store ptr %4, ptr %2, align 8
  %5 = getelementptr inbounds i8, ptr %0, i64 16
  %6 = tail call noundef ptr @_Z12AllocateHeapm8MEMFLAGSN17AllocFailStrategy13AllocFailEnumE(i64 noundef 16, i8 noundef zeroext 5, i32 noundef 0) #13
  store i8 1, ptr %6, align 8
  %7 = getelementptr inbounds i8, ptr %6, i64 4
  store i32 0, ptr %7, align 4
  %8 = getelementptr inbounds i8, ptr %6, i64 8
  store ptr null, ptr %8, align 8
  store ptr %6, ptr %5, align 8
  ret void
}